target datalayout = "e-m:e-p270:32:32-p271:32:32-p272:64:64-i64:64-i128:128-f80:128-n8:16:32:64-S128"
target triple = "x86_64-pc-linux-gnu"

; Function Attrs: null_pointer_is_valid sspstrong uwtable
define internal i32 @dissect_iec60870_101_tcp(ptr noundef %0, ptr noundef %1, ptr noundef %2, ptr noundef %3) #0 {
  %5 = alloca i32, align 4
  %6 = alloca ptr, align 8
  %7 = alloca ptr, align 8
  %8 = alloca ptr, align 8
  %9 = alloca ptr, align 8
  %10 = alloca i32, align 4
  %11 = alloca i32, align 4
  store ptr %0, ptr %6, align 8
  store ptr %1, ptr %7, align 8
  store ptr %2, ptr %8, align 8
  store ptr %3, ptr %9, align 8
  call void @llvm.lifetime.start.p0(i64 4, ptr %10) #8
  %12 = load ptr, ptr %6, align 8
  %13 = call zeroext i8 @tvb_get_uint8(ptr noundef %12, i32 noundef 0)
  %14 = zext i8 %13 to i32
  store i32 %14, ptr %10, align 4
  %15 = load i32, ptr %10, align 4
  switch i32 %15, label %21 [
    i32 229, label %16
    i32 16, label %16
    i32 104, label %16
  ]

16:                                               ; preds = %4, %4, %4
  %17 = load ptr, ptr %6, align 8
  %18 = load ptr, ptr %7, align 8
  %19 = load ptr, ptr %8, align 8
  %20 = load ptr, ptr %9, align 8
  call void @tcp_dissect_pdus(ptr noundef %17, ptr noundef %18, ptr noundef %19, i1 noundef zeroext true, i32 noundef 1, ptr noundef @get_iec101_len, ptr noundef @dissect_iec60870_101, ptr noundef %20)
  br label %22

21:                                               ; preds = %4
  store i32 0, ptr %5, align 4
  store i32 1, ptr %11, align 4
  br label %25

22:                                               ; preds = %16
  %23 = load ptr, ptr %6, align 8
  %24 = call i32 @tvb_captured_length(ptr noundef %23)
  store i32 %24, ptr %5, align 4
  store i32 1, ptr %11, align 4
  br label %25

25:                                               ; preds = %22, %21
  call void @llvm.lifetime.end.p0(i64 4, ptr %10) #8
  %26 = load i32, ptr %5, align 4
  ret i32 %26
}